target datalayout = "e-m:e-p270:32:32-p271:32:32-p272:64:64-i64:64-i128:128-f80:128-n8:16:32:64-S128"
target triple = "x86_64-pc-linux-gnu"

%struct.Model256 = type { [256 x i32], [256 x i32], i32, [68 x i32], i32, i32, i32, i32 }

; Function Attrs: nounwind uwtable
define internal void @model256_update(ptr noundef %0, i32 noundef %1) #1 {
  %3 = alloca ptr, align 8
  %4 = alloca i32, align 4
  %5 = alloca i32, align 4
  %6 = alloca i32, align 4
  %7 = alloca i32, align 4
  %8 = alloca i32, align 4
  %9 = alloca i32, align 4
  %10 = alloca i32, align 4
  store ptr %0, ptr %3, align 8, !tbaa !78
  store i32 %1, ptr %4, align 4, !tbaa !38
  call void @llvm.lifetime.start.p0(i64 4, ptr %5) #8
  call void @llvm.lifetime.start.p0(i64 4, ptr %6) #8
  store i32 0, ptr %6, align 4, !tbaa !38
  call void @llvm.lifetime.start.p0(i64 4, ptr %7) #8
  call void @llvm.lifetime.start.p0(i64 4, ptr %8) #8
  call void @llvm.lifetime.start.p0(i64 4, ptr %9) #8
  store i32 1, ptr %9, align 4, !tbaa !38
  %11 = load ptr, ptr %3, align 8, !tbaa !78
  %12 = getelementptr inbounds nuw %struct.Model256, ptr %11, i32 0, i32 0
  %13 = load i32, ptr %4, align 4, !tbaa !38
  %14 = sext i32 %13 to i64
  %15 = getelementptr inbounds [256 x i32], ptr %12, i64 0, i64 %14
  %16 = load i32, ptr %15, align 4, !tbaa !38
  %17 = add nsw i32 %16, 1
  store i32 %17, ptr %15, align 4, !tbaa !38
  %18 = load ptr, ptr %3, align 8, !tbaa !78
  %19 = getelementptr inbounds nuw %struct.Model256, ptr %18, i32 0, i32 7
  %20 = load i32, ptr %19, align 4, !tbaa !91
  %21 = add nsw i32 %20, -1
  store i32 %21, ptr %19, align 4, !tbaa !91
  %22 = load ptr, ptr %3, align 8, !tbaa !78
  %23 = getelementptr inbounds nuw %struct.Model256, ptr %22, i32 0, i32 7
  %24 = load i32, ptr %23, align 4, !tbaa !91
  %25 = icmp ne i32 %24, 0
  br i1 %25, label %26, label %27

26:                                               ; preds = %2
  store i32 1, ptr %10, align 4
  br label %167

27:                                               ; preds = %2
  %28 = load ptr, ptr %3, align 8, !tbaa !78
  %29 = getelementptr inbounds nuw %struct.Model256, ptr %28, i32 0, i32 5
  %30 = load i32, ptr %29, align 4, !tbaa !90
  %31 = load ptr, ptr %3, align 8, !tbaa !78
  %32 = getelementptr inbounds nuw %struct.Model256, ptr %31, i32 0, i32 2
  %33 = load i32, ptr %32, align 4, !tbaa !89
  %34 = add nsw i32 %33, %30
  store i32 %34, ptr %32, align 4, !tbaa !89
  %35 = load ptr, ptr %3, align 8, !tbaa !78
  %36 = getelementptr inbounds nuw %struct.Model256, ptr %35, i32 0, i32 2
  %37 = load i32, ptr %36, align 4, !tbaa !89
  %38 = icmp sgt i32 %37, 32768
  br i1 %38, label %39, label %73

39:                                               ; preds = %27
  %40 = load ptr, ptr %3, align 8, !tbaa !78
  %41 = getelementptr inbounds nuw %struct.Model256, ptr %40, i32 0, i32 2
  store i32 0, ptr %41, align 4, !tbaa !89
  store i32 0, ptr %5, align 4, !tbaa !38
  br label %42

42:                                               ; preds = %69, %39
  %43 = load i32, ptr %5, align 4, !tbaa !38
  %44 = icmp slt i32 %43, 256
  br i1 %44, label %45, label %72

45:                                               ; preds = %42
  %46 = load ptr, ptr %3, align 8, !tbaa !78
  %47 = getelementptr inbounds nuw %struct.Model256, ptr %46, i32 0, i32 0
  %48 = load i32, ptr %5, align 4, !tbaa !38
  %49 = sext i32 %48 to i64
  %50 = getelementptr inbounds [256 x i32], ptr %47, i64 0, i64 %49
  %51 = load i32, ptr %50, align 4, !tbaa !38
  %52 = add nsw i32 %51, 1
  %53 = ashr i32 %52, 1
  %54 = load ptr, ptr %3, align 8, !tbaa !78
  %55 = getelementptr inbounds nuw %struct.Model256, ptr %54, i32 0, i32 0
  %56 = load i32, ptr %5, align 4, !tbaa !38
  %57 = sext i32 %56 to i64
  %58 = getelementptr inbounds [256 x i32], ptr %55, i64 0, i64 %57
  store i32 %53, ptr %58, align 4, !tbaa !38
  %59 = load ptr, ptr %3, align 8, !tbaa !78
  %60 = getelementptr inbounds nuw %struct.Model256, ptr %59, i32 0, i32 0
  %61 = load i32, ptr %5, align 4, !tbaa !38
  %62 = sext i32 %61 to i64
  %63 = getelementptr inbounds [256 x i32], ptr %60, i64 0, i64 %62
  %64 = load i32, ptr %63, align 4, !tbaa !38
  %65 = load ptr, ptr %3, align 8, !tbaa !78
  %66 = getelementptr inbounds nuw %struct.Model256, ptr %65, i32 0, i32 2
  %67 = load i32, ptr %66, align 4, !tbaa !89
  %68 = add nsw i32 %67, %64
  store i32 %68, ptr %66, align 4, !tbaa !89
  br label %69

69:                                               ; preds = %45
  %70 = load i32, ptr %5, align 4, !tbaa !38
  %71 = add nsw i32 %70, 1
  store i32 %71, ptr %5, align 4, !tbaa !38
  br label %42, !llvm.loop !92

72:                                               ; preds = %42
  br label %73

73:                                               ; preds = %72, %27
  %74 = load ptr, ptr %3, align 8, !tbaa !78
  %75 = getelementptr inbounds nuw %struct.Model256, ptr %74, i32 0, i32 2
  %76 = load i32, ptr %75, align 4, !tbaa !89
  %77 = udiv i32 -2147483648, %76
  store i32 %77, ptr %7, align 4, !tbaa !38
  %78 = load ptr, ptr %3, align 8, !tbaa !78
  %79 = getelementptr inbounds nuw %struct.Model256, ptr %78, i32 0, i32 3
  %80 = getelementptr inbounds [68 x i32], ptr %79, i64 0, i64 0
  store i32 0, ptr %80, align 4, !tbaa !38
  store i32 0, ptr %5, align 4, !tbaa !38
  br label %81

81:                                               ; preds = %123, %73
  %82 = load i32, ptr %5, align 4, !tbaa !38
  %83 = icmp slt i32 %82, 256
  br i1 %83, label %84, label %126

84:                                               ; preds = %81
  %85 = load i32, ptr %6, align 4, !tbaa !38
  %86 = load i32, ptr %7, align 4, !tbaa !38
  %87 = mul i32 %85, %86
  %88 = lshr i32 %87, 16
  %89 = load ptr, ptr %3, align 8, !tbaa !78
  %90 = getelementptr inbounds nuw %struct.Model256, ptr %89, i32 0, i32 1
  %91 = load i32, ptr %5, align 4, !tbaa !38
  %92 = sext i32 %91 to i64
  %93 = getelementptr inbounds [256 x i32], ptr %90, i64 0, i64 %92
  store i32 %88, ptr %93, align 4, !tbaa !38
  %94 = load ptr, ptr %3, align 8, !tbaa !78
  %95 = getelementptr inbounds nuw %struct.Model256, ptr %94, i32 0, i32 0
  %96 = load i32, ptr %5, align 4, !tbaa !38
  %97 = sext i32 %96 to i64
  %98 = getelementptr inbounds [256 x i32], ptr %95, i64 0, i64 %97
  %99 = load i32, ptr %98, align 4, !tbaa !38
  %100 = load i32, ptr %6, align 4, !tbaa !38
  %101 = add nsw i32 %100, %99
  store i32 %101, ptr %6, align 4, !tbaa !38
  %102 = load ptr, ptr %3, align 8, !tbaa !78
  %103 = getelementptr inbounds nuw %struct.Model256, ptr %102, i32 0, i32 1
  %104 = load i32, ptr %5, align 4, !tbaa !38
  %105 = sext i32 %104 to i64
  %106 = getelementptr inbounds [256 x i32], ptr %103, i64 0, i64 %105
  %107 = load i32, ptr %106, align 4, !tbaa !38
  %108 = ashr i32 %107, 9
  store i32 %108, ptr %8, align 4, !tbaa !38
  br label %109

109:                                              ; preds = %113, %84
  %110 = load i32, ptr %9, align 4, !tbaa !38
  %111 = load i32, ptr %8, align 4, !tbaa !38
  %112 = icmp sle i32 %110, %111
  br i1 %112, label %113, label %122

113:                                              ; preds = %109
  %114 = load i32, ptr %5, align 4, !tbaa !38
  %115 = sub nsw i32 %114, 1
  %116 = load ptr, ptr %3, align 8, !tbaa !78
  %117 = getelementptr inbounds nuw %struct.Model256, ptr %116, i32 0, i32 3
  %118 = load i32, ptr %9, align 4, !tbaa !38
  %119 = add nsw i32 %118, 1
  store i32 %119, ptr %9, align 4, !tbaa !38
  %120 = sext i32 %118 to i64
  %121 = getelementptr inbounds [68 x i32], ptr %117, i64 0, i64 %120
  store i32 %115, ptr %121, align 4, !tbaa !38
  br label %109, !llvm.loop !93

122:                                              ; preds = %109
  br label %123

123:                                              ; preds = %122
  %124 = load i32, ptr %5, align 4, !tbaa !38
  %125 = add nsw i32 %124, 1
  store i32 %125, ptr %5, align 4, !tbaa !38
  br label %81, !llvm.loop !94

126:                                              ; preds = %81
  br label %127

127:                                              ; preds = %133, %126
  %128 = load i32, ptr %9, align 4, !tbaa !38
  %129 = load ptr, ptr %3, align 8, !tbaa !78
  %130 = getelementptr inbounds nuw %struct.Model256, ptr %129, i32 0, i32 4
  %131 = load i32, ptr %130, align 4, !tbaa !81
  %132 = icmp slt i32 %128, %131
  br i1 %132, label %133, label %140

133:                                              ; preds = %127
  %134 = load ptr, ptr %3, align 8, !tbaa !78
  %135 = getelementptr inbounds nuw %struct.Model256, ptr %134, i32 0, i32 3
  %136 = load i32, ptr %9, align 4, !tbaa !38
  %137 = add nsw i32 %136, 1
  store i32 %137, ptr %9, align 4, !tbaa !38
  %138 = sext i32 %136 to i64
  %139 = getelementptr inbounds [68 x i32], ptr %135, i64 0, i64 %138
  store i32 255, ptr %139, align 4, !tbaa !38
  br label %127, !llvm.loop !95

140:                                              ; preds = %127
  %141 = load ptr, ptr %3, align 8, !tbaa !78
  %142 = getelementptr inbounds nuw %struct.Model256, ptr %141, i32 0, i32 5
  %143 = load i32, ptr %142, align 4, !tbaa !90
  %144 = mul nsw i32 %143, 5
  %145 = ashr i32 %144, 2
  %146 = load ptr, ptr %3, align 8, !tbaa !78
  %147 = getelementptr inbounds nuw %struct.Model256, ptr %146, i32 0, i32 5
  store i32 %145, ptr %147, align 4, !tbaa !90
  %148 = load ptr, ptr %3, align 8, !tbaa !78
  %149 = getelementptr inbounds nuw %struct.Model256, ptr %148, i32 0, i32 5
  %150 = load i32, ptr %149, align 4, !tbaa !90
  %151 = load ptr, ptr %3, align 8, !tbaa !78
  %152 = getelementptr inbounds nuw %struct.Model256, ptr %151, i32 0, i32 6
  %153 = load i32, ptr %152, align 4, !tbaa !80
  %154 = icmp sgt i32 %150, %153
  br i1 %154, label %155, label %161

155:                                              ; preds = %140
  %156 = load ptr, ptr %3, align 8, !tbaa !78
  %157 = getelementptr inbounds nuw %struct.Model256, ptr %156, i32 0, i32 6
  %158 = load i32, ptr %157, align 4, !tbaa !80
  %159 = load ptr, ptr %3, align 8, !tbaa !78
  %160 = getelementptr inbounds nuw %struct.Model256, ptr %159, i32 0, i32 5
  store i32 %158, ptr %160, align 4, !tbaa !90
  br label %161

161:                                              ; preds = %155, %140
  %162 = load ptr, ptr %3, align 8, !tbaa !78
  %163 = getelementptr inbounds nuw %struct.Model256, ptr %162, i32 0, i32 5
  %164 = load i32, ptr %163, align 4, !tbaa !90
  %165 = load ptr, ptr %3, align 8, !tbaa !78
  %166 = getelementptr inbounds nuw %struct.Model256, ptr %165, i32 0, i32 7
  store i32 %164, ptr %166, align 4, !tbaa !91
  store i32 0, ptr %10, align 4
  br label %167

167:                                              ; preds = %161, %26
  call void @llvm.lifetime.end.p0(i64 4, ptr %9) #8
  call void @llvm.lifetime.end.p0(i64 4, ptr %8) #8
  call void @llvm.lifetime.end.p0(i64 4, ptr %7) #8
  call void @llvm.lifetime.end.p0(i64 4, ptr %6) #8
  call void @llvm.lifetime.end.p0(i64 4, ptr %5) #8
  %168 = load i32, ptr %10, align 4
  switch i32 %168, label %170 [
    i32 0, label %169
    i32 1, label %169
  ]

169:                                              ; preds = %167, %167
  ret void

170:                                              ; preds = %167
  unreachable
}