; Function Attrs: nofree norecurse nosync nounwind memory(argmem: readwrite) uwtable
define internal fastcc void @model256_update(ptr noundef captures(none) %0, i32 noundef %1) unnamed_addr #5 {
  %3 = sext i32 %1 to i64
  %4 = getelementptr inbounds [256 x i32], ptr %0, i64 0, i64 %3
  %5 = load i32, ptr %4, align 4, !tbaa !56
  %6 = add nsw i32 %5, 1
  store i32 %6, ptr %4, align 4, !tbaa !56
  %7 = getelementptr inbounds nuw i8, ptr %0, i64 2336
  %8 = load i32, ptr %7, align 4, !tbaa !83
  %9 = add nsw i32 %8, -1
  store i32 %9, ptr %7, align 4, !tbaa !83
  %.not = icmp eq i32 %9, 0
  br i1 %.not, label %10, label %57

10:                                               ; preds = %2
  %11 = getelementptr inbounds nuw i8, ptr %0, i64 2328
  %12 = load i32, ptr %11, align 4, !tbaa !82
  %13 = getelementptr inbounds nuw i8, ptr %0, i64 2048
  %14 = load i32, ptr %13, align 4, !tbaa !81
  %15 = add nsw i32 %14, %12
  store i32 %15, ptr %13, align 4, !tbaa !81
  %16 = icmp sgt i32 %15, 32768
  br i1 %16, label %17, label %.loopexit

17:                                               ; preds = %10
  store i32 0, ptr %13, align 4, !tbaa !81
  br label %18

18:                                               ; preds = %17, %18
  %indvars.iv = phi i64 [ 0, %17 ], [ %indvars.iv.next, %18 ]
  %19 = getelementptr inbounds nuw [256 x i32], ptr %0, i64 0, i64 %indvars.iv
  %20 = load i32, ptr %19, align 4, !tbaa !56
  %21 = add nsw i32 %20, 1
  %22 = ashr i32 %21, 1
  store i32 %22, ptr %19, align 4, !tbaa !56
  %23 = load i32, ptr %13, align 4, !tbaa !81
  %24 = add nsw i32 %23, %22
  store i32 %24, ptr %13, align 4, !tbaa !81
  %indvars.iv.next = add nuw nsw i64 %indvars.iv, 1
  %exitcond.not = icmp eq i64 %indvars.iv.next, 256
  br i1 %exitcond.not, label %.loopexit, label %18, !llvm.loop !90

.loopexit:                                        ; preds = %18, %10
  %25 = phi i32 [ %15, %10 ], [ %24, %18 ]
  %26 = udiv i32 -2147483648, %25
  %27 = getelementptr inbounds nuw i8, ptr %0, i64 2052
  store i32 0, ptr %27, align 4, !tbaa !56
  %28 = getelementptr inbounds nuw i8, ptr %0, i64 1024
  br label %33

.preheader:                                       ; preds = %._crit_edge
  %29 = getelementptr inbounds nuw i8, ptr %0, i64 2324
  %30 = load i32, ptr %29, align 4, !tbaa !79
  %31 = icmp slt i32 %.1.lcssa, %30
  br i1 %31, label %.lr.ph58.preheader, label %._crit_edge59

.lr.ph58.preheader:                               ; preds = %.preheader
  %32 = zext nneg i32 %.1.lcssa to i64
  br label %.lr.ph58

33:                                               ; preds = %.loopexit, %._crit_edge
  %indvars.iv64 = phi i64 [ 0, %.loopexit ], [ %indvars.iv.next65, %._crit_edge ]
  %.056 = phi i32 [ 1, %.loopexit ], [ %.1.lcssa, %._crit_edge ]
  %.04854 = phi i32 [ 0, %.loopexit ], [ %39, %._crit_edge ]
  %34 = mul i32 %.04854, %26
  %35 = lshr i32 %34, 16
  %36 = getelementptr inbounds nuw [256 x i32], ptr %28, i64 0, i64 %indvars.iv64
  store i32 %35, ptr %36, align 4, !tbaa !56
  %37 = getelementptr inbounds nuw [256 x i32], ptr %0, i64 0, i64 %indvars.iv64
  %38 = load i32, ptr %37, align 4, !tbaa !56
  %39 = add nsw i32 %38, %.04854
  %40 = lshr i32 %34, 25
  %.not5052 = icmp sgt i32 %.056, %40
  br i1 %.not5052, label %._crit_edge, label %.lr.ph

.lr.ph:                                           ; preds = %33
  %41 = sext i32 %.056 to i64
  %42 = zext nneg i32 %40 to i64
  %43 = trunc i64 %indvars.iv64 to i32
  %44 = add i32 %43, -1
  br label %45

45:                                               ; preds = %.lr.ph, %45
  %indvars.iv61 = phi i64 [ %41, %.lr.ph ], [ %indvars.iv.next62, %45 ]
  %indvars.iv.next62 = add nsw i64 %indvars.iv61, 1
  %46 = getelementptr inbounds [68 x i32], ptr %27, i64 0, i64 %indvars.iv61
  store i32 %44, ptr %46, align 4, !tbaa !56
  %.not50.not = icmp slt i64 %indvars.iv61, %42
  br i1 %.not50.not, label %45, label %._crit_edge.loopexit, !llvm.loop !91

._crit_edge.loopexit:                             ; preds = %45
  %47 = trunc nuw nsw i64 %indvars.iv.next62 to i32
  br label %._crit_edge

._crit_edge:                                      ; preds = %._crit_edge.loopexit, %33
  %.1.lcssa = phi i32 [ %.056, %33 ], [ %47, %._crit_edge.loopexit ]
  %indvars.iv.next65 = add nuw nsw i64 %indvars.iv64, 1
  %exitcond67.not = icmp eq i64 %indvars.iv.next65, 256
  br i1 %exitcond67.not, label %.preheader, label %33, !llvm.loop !92

.lr.ph58:                                         ; preds = %.lr.ph58.preheader, %.lr.ph58
  %indvars.iv69 = phi i64 [ %32, %.lr.ph58.preheader ], [ %indvars.iv.next70, %.lr.ph58 ]
  %indvars.iv.next70 = add nuw nsw i64 %indvars.iv69, 1
  %48 = getelementptr inbounds nuw [68 x i32], ptr %27, i64 0, i64 %indvars.iv69
  store i32 255, ptr %48, align 4, !tbaa !56
  %49 = load i32, ptr %29, align 4, !tbaa !79
  %50 = sext i32 %49 to i64
  %51 = icmp slt i64 %indvars.iv.next70, %50
  br i1 %51, label %.lr.ph58, label %._crit_edge59, !llvm.loop !93

._crit_edge59:                                    ; preds = %.lr.ph58, %.preheader
  %52 = load i32, ptr %11, align 4, !tbaa !82
  %53 = ashr i32 %52, 2
  %54 = add nsw i32 %53, %52
  %55 = getelementptr inbounds nuw i8, ptr %0, i64 2332
  %56 = load i32, ptr %55, align 4, !tbaa !78
  %spec.store.select = tail call i32 @llvm.smin.i32(i32 %54, i32 %56)
  store i32 %spec.store.select, ptr %11, align 4
  store i32 %spec.store.select, ptr %7, align 4, !tbaa !83
  br label %57

57:                                               ; preds = %2, %._crit_edge59
  ret void
}